; Function Attrs: mustprogress nofree norecurse nosync nounwind memory(readwrite, inaccessiblemem: none) uwtable
define void @_ZN10ImDrawData14ScaleClipRectsERK6ImVec2(ptr noundef nonnull readonly align 8 captures(none) dereferenceable(64) %0, ptr noundef nonnull readonly align 4 captures(none) dereferenceable(8) %1) local_unnamed_addr #24 align 2 {
  %3 = getelementptr inbounds nuw i8, ptr %0, i64 16
  %4 = getelementptr inbounds nuw i8, ptr %0, i64 24
  %5 = load ptr, ptr %4, align 8, !tbaa !222
  %6 = load i32, ptr %3, align 8, !tbaa !223
  %7 = sext i32 %6 to i64
  %8 = getelementptr inbounds ptr, ptr %5, i64 %7
  %.not27 = icmp eq i32 %6, 0
  br i1 %.not27, label %._crit_edge31, label %.lr.ph30

.lr.ph30:                                         ; preds = %2
  %9 = getelementptr inbounds nuw i8, ptr %1, i64 4
  br label %10

._crit_edge31:                                    ; preds = %._crit_edge, %2
  ret void

10:                                               ; preds = %.lr.ph30, %._crit_edge
  %.028 = phi ptr [ %5, %.lr.ph30 ], [ %17, %._crit_edge ]
  %11 = load ptr, ptr %.028, align 8, !tbaa !224
  %12 = getelementptr inbounds nuw i8, ptr %11, i64 8
  %13 = load ptr, ptr %12, align 8, !tbaa !51
  %14 = load i32, ptr %11, align 8, !tbaa !53
  %15 = sext i32 %14 to i64
  %16 = getelementptr inbounds %struct.ImDrawCmd, ptr %13, i64 %15
  %.not2425 = icmp eq i32 %14, 0
  br i1 %.not2425, label %._crit_edge, label %.lr.ph

._crit_edge:                                      ; preds = %.lr.ph, %10
  %17 = getelementptr inbounds nuw i8, ptr %.028, i64 8
  %.not = icmp eq ptr %17, %8
  br i1 %.not, label %._crit_edge31, label %10

.lr.ph:                                           ; preds = %10, %.lr.ph
  %.02326 = phi ptr [ %31, %.lr.ph ], [ %13, %10 ]
  %18 = load float, ptr %.02326, align 8, !tbaa !229
  %19 = load float, ptr %1, align 4, !tbaa !103
  %20 = fmul float %18, %19
  %21 = getelementptr inbounds nuw i8, ptr %.02326, i64 4
  %22 = load float, ptr %21, align 4, !tbaa !230
  %23 = load float, ptr %9, align 4, !tbaa !104
  %24 = fmul float %22, %23
  %25 = getelementptr inbounds nuw i8, ptr %.02326, i64 8
  %26 = load float, ptr %25, align 8, !tbaa !231
  %27 = fmul float %19, %26
  %28 = getelementptr inbounds nuw i8, ptr %.02326, i64 12
  %29 = load float, ptr %28, align 4, !tbaa !232
  %30 = fmul float %23, %29
  store float %20, ptr %.02326, align 8, !tbaa !3
  store float %24, ptr %21, align 4, !tbaa !3
  store float %27, ptr %25, align 8, !tbaa !3
  store float %30, ptr %28, align 4, !tbaa !3
  %31 = getelementptr inbounds nuw i8, ptr %.02326, i64 64
  %.not24 = icmp eq ptr %31, %16
  br i1 %.not24, label %._crit_edge, label %.lr.ph
}